; Function Attrs: mustprogress nounwind uwtable
define hidden noundef nonnull align 8 dereferenceable(96) ptr @_ZNK15vaddL_mem_0Node11out_RegMaskEv(ptr nocapture noundef nonnull readonly align 8 dereferenceable(96) %0) unnamed_addr #3 align 2 {
  %2 = getelementptr inbounds i8, ptr %0, i64 56
  %3 = load ptr, ptr %2, align 8
  %4 = load ptr, ptr %3, align 8
  %5 = load ptr, ptr %4, align 8
  %6 = getelementptr inbounds i8, ptr %5, i64 16
  %7 = load ptr, ptr %6, align 8
  %8 = tail call noundef ptr %7(ptr noundef nonnull align 8 dereferenceable(8) %4, i32 noundef 0) #6
  ret ptr %8
}